Microsoft (R) Macro Assembler Version 5.00                  5/11/17 10:39:37
                                                             Page     1-1


				.386 
				;==============================================
				======== 
				;       –ú–û–î–ï–õ–¨ –ú–£–õ–¨–¢–ò–ü–†–û–ì–†–ê–ú
				–ù–û–á –°–ò–°–¢–ï–ú–ò 
				;==============================================
				======== 
 = 000A				max_prg equ 10              ; –º–∞–∫—Å–∏–º–∞–ª—
				å–Ω–∞ –∫—ñ–ª—å–∫—ñ—Å—Ç—å "–æ–¥–Ω–æ—á–∞—Å–Ω–æ" 
				                            ; –≤–∏–∫–æ–Ω—É–≤–∞–
				Ω–∏—Ö  –∑–∞–¥–∞—á 
 = FFFF				time_slice equ 65535        ; –∫—ñ–ª—å–∫—ñ—Å—Ç—
				å –º—ñ–∫—Ä–æ—Å–µ–∫—É–Ω–¥, –≤–∏–¥—ñ–ª–µ–Ω–∏—Ö –Ω
				–∞ –æ–¥–∏–Ω 
				                            ; –∫–≤–∞–Ω—Ç —á–∞—Å
				—É (–º–∞–∫—Å–∏–º–∞–ª—å–Ω–µ –∑–Ω–∞—á–µ–Ω–Ω—è 655
				35) 
				 
 0000				_ST SEGMENT WORD STACK 'stack' use16 
 0000  7D00[			    dw 32000 dup (?) 
	   ????			
			 ]	
				
 FA00				    top label word 
 FA00  0064[			    dw 100 dup (?)          ; —Ä–µ–∑–µ—Ä–≤ –¥–ª
				—è –ø–æ–º–∏–ª–æ–∫ 
	   ????			
			 ]	
				
				                            ; –∞–Ω—Ç–∏ –ø–µ—Ä–µ
				–ø–æ–≤–Ω–µ–Ω–Ω—è —Å—Ç–µ–∫–∞ 
 FAC8				_ST ENDS 
				 
 0000				_DATA SEGMENT WORD PUBLIC 'DATA' use16 
 0000  ????????			    @ms_dos_busy dd (?)     ; –ª–æ–≥—ñ—á–Ω–∞ –∞
				–¥—Ä–µ—Å–∞ –æ–∑–Ω–∞–∫–∏ –∑–∞–π–Ω—è—Ç–æ—Å—Ç—ñ MS
				-DOS 
 0004  00			    int8set db 0            ; –æ–∑–Ω–∞–∫–∞ –ø–µ
				—Ä–µ—Ö–æ–ø–ª–µ–Ω–Ω—è –ø–µ—Ä–µ—Ä–∏–≤–∞–Ω–Ω—è –≤—
				ñ–¥ —Ç–∞–π–º–µ—Ä–∞ 
 0005  00			    int9set db 0            ; –æ–∑–Ω–∞–∫–∞ –ø–µ
				—Ä–µ—Ö–æ–ø–ª–µ–Ω–Ω—è –ø–µ—Ä–µ—Ä–∏–≤–∞–Ω–Ω—è –≤—
				ñ–¥ –∫–ª–∞–≤—ñ–∞—Ç—É—Ä–∏ 
 0006  00			    int33set db 0           ; –æ–∑–Ω–∞–∫–∞ –ø–µ
				—Ä–µ—Ö–æ–ø–ª–µ–Ω–Ω—è –ø–µ—Ä–µ—Ä–∏–≤–∞–Ω–Ω—è –≤—
				ñ–¥ –º–∏–∫–∏ 
				 
 =				    fon equ max_prg         ; –æ–∑–Ω–∞–∫–∞ —Ñ–æ
				–Ω–æ–≤–æ—ó –∑–∞–¥–∞—á—ñ; 
 0007				    fonsp label word        ; –∞–¥—Ä–µ—Å–∞ –∑–±
				–µ—Ä–µ–∂–µ–Ω–Ω—è SP —Ñ–æ–Ω–æ–≤–æ—ó –∑–∞–¥–∞—á—ñ
				 
 0007  FA00 ---- R		    sssp dd top             ; –ª–æ–≥—ñ—á–Ω–∞ –∞
				–¥—Ä–µ—Å–∞ —Å—Ç–µ–∫–∞ —Ñ–æ–Ω–æ–≤–æ—ó –∑–∞–¥–∞—á
Microsoft (R) Macro Assembler Version 5.00                  5/11/17 10:39:37
                                                             Page     1-2


				—ñ 
				 
				    ; –º–∞—Å–∏–≤ –∑–Ω–∞—á–µ–Ω—å SP –¥–ª—è –∑–∞–
				¥–∞—á, (–¥–ª—è —Å—Ç–µ–∫–∞ –∫–æ–∂–Ω–æ—ó –∑–∞–¥–∞
				—á—ñ –≤—ñ–¥–≤–µ–¥–µ–Ω–æ 1000 —Å–ª—ñ–≤)
				    ; –∑–∞–¥–∞–Ω—ñ –ø–æ—á–∞—Ç–∫–æ–≤—ñ –∑–Ω–∞—á–
				µ–Ω–Ω—è  
 000B  03E8 07D0 0BB8 0FA0	    stp dw 1000, 2000, 3000, 4000 
 0013  1388 1770 1B58 1F40	    dw 5000, 6000, 7000, 8000 
 001B  2328 2710 2AF8 2EE0	    dw 9000, 10000, 11000, 12000 
 0023  32C8 36B0 3A98 3E80	    dw 13000, 14000, 15000, 16000 
				 
 002B  0000			    nprg dw 0               ; –Ω–æ–º–µ—Ä –∞–∫—Ç
				–∏–≤–Ω–æ—ó –∑–∞–¥–∞—á—ñ (–≤—ñ–¥ 0 –¥–æ max_prg-
				1) 
				                            ; –∞–±–æ –æ–∑–Ω–∞–∫
				–∞ —Ñ–æ–Ω–æ–≤–æ—ó –∑–∞–¥–∞—á—ñ (fon) 
				 
				    ; –º–∞—Å–∏–≤ —Å—Ç–∞–Ω—É –∑–∞–¥–∞—á 
 002D  0010[			    init db 16 dup (0) 
	   00			
			 ]	
				
				 
				    ; –º–∞—Å–∏–≤ –¥–æ–∑–≤–æ–ª–µ–Ω–æ–≥–æ —á–∏—Å–
				ª–∞ –∫–≤–∞–Ω—Ç—ñ–≤ –∑–∞–¥–∞—á 
 003D  0010[			    clock db 16 dup (1) 
	   01			
			 ]	
				
				 
				    ; –º–∞—Å–∏–≤ –ª—ñ—á–∏–ª—å–Ω–∏–∫—ñ–≤ –∫–≤–∞–
				Ω—Ç—ñ–≤ –∑–∞–¥–∞—á  
 004D  0010[			    clockt db 16 dup (0) 
	   00			
			 ]	
				
				 
 005D  0010[			    screen_addr dw 16 dup (0)   ; –∞–¥—Ä–µ—Å–∞ 
				(–∑–º—ñ—â–µ–Ω–Ω—è –≤—ñ–¥ –ø–æ—á–∞—Ç–∫—É –≤—ñ–¥–
				µ–æ—Å—Ç–æ—Ä—ñ–Ω–∫–∏) 
	   0000			
			 ]	
				
				                                ; –æ–±–ª–∞—Å—Ç—
				ñ –≤–≤–µ–¥–µ–Ω–Ω—è –Ω–∞ –µ–∫—Ä–∞–Ω –∑–Ω–∞—á–µ–Ω
				—å –∑–∞–¥–∞—á—ñ 
				 
				    ; –º–∞—Å–∏–≤ —ñ–º–µ–Ω –∑–∞–¥–∞—á 
 007D				    names label word 
 007D  30 54 31 54 32 54 33	    db '0T1T2T3T4T5T6T7T8T9TATBTCTDTETFT' 
       54 34 54 35 54 36 54	
       37 54 38 54 39 54 41	
       54 42 54 43 54 44 54	
Microsoft (R) Macro Assembler Version 5.00                  5/11/17 10:39:37
                                                             Page     1-3


       45 54 46 54		
				 
 009D  0000			    clk dw 0                ; –ª—ñ—á–∏–ª—å–Ω–∏–
				∫ –ø–µ—Ä–µ—Ä–∏–≤–∞–Ω—å –≤—ñ–¥ —Ç–∞–π–º–µ—Ä–∞ 
 009F  0000			    rbtn_pressed dw 0       ; –æ–∑–Ω–∞–∫–∞ —Ç–æ
				–≥–æ, —á–∏ –±—É–ª–∞ –Ω–∞–∂–∞—Ç–∞ –ø—Ä–∞–≤–∞ 
				                            ; –∫–Ω–æ–ø–∫–∞ –º–∏
				—à–∫–∏(0-–Ω–µ –±—É–ª–∞/0ffh - –±—É–ª–∞) 
 00A1  ????				pointerOffset dw ? 
 00A3  ????				taskToSht dw ? 
 00A5				_DATA ENDS 
				 
 0000				_TEXT SEGMENT BYTE PUBLIC 'CODE' use16 
				    ASSUME CS:_TEXT,DS:_DATA 
				 
				;----------------------------------------------
				-------------- 
				; –ø—Ä–æ—Ü–µ–¥—É—Ä–∞ "–ø–µ—Ä–µ—Ö–æ–ø–ª–µ–Ω–Ω—è"
				 –ø–µ—Ä–µ—Ä–∏–≤–∞–Ω–Ω—è –≤—ñ–¥ —Ç–∞–π–º–µ—Ä–∞ (
				int8) 
				;----------------------------------------------
				-------------- 
 0000				setint8 proc 
				;----------------------------------------------
				-------------- 
 0000  A0 0004 R		    mov al, int8set 
 0003  0A C0			    or al, al               ; –∫–æ–Ω—Ç—Ä–æ–ª—å 
				"–ø–µ—Ä–µ—Ö–æ–ø–ª–µ–Ω–Ω—è" –ø–µ—Ä–µ—Ö–æ–ø–ª–µ–Ω
				—å 
 0005  0F 85 0037 R		    jnz zero_8 
 0009  B4 35			    MOV AH, 35H             ; –æ—Ç—Ä–∏–º–∞—Ç–∏ 
				–≤–µ–∫—Ç–æ—Ä –ø–µ—Ä–µ—Ä–∏–≤–∞–Ω–Ω—è 
 000B  B0 08			    MOV AL, 8               ; –ø–µ—Ä–µ—Ä–∏–≤–∞–
				Ω–Ω—è –≤—ñ–¥ —Ç–∞–π–º–µ—Ä–∞ (8) 
 000D  CD 21			    INT 21H                 ; –∑–Ω–∞—á–µ–Ω–Ω—è 
				—â–æ –ø–æ–≤–µ—Ä—Ç–∞—î—Ç—å—Å—è: 
				                            ; es:bx - –ª–æ–≥—ñ—
				á–Ω–∞ –∞–¥—Ä–µ—Å–∞ —Å–∏—Å—Ç–µ–º–Ω–æ—ó –ø—Ä–æ—Ü–
				µ–¥—É—Ä–∏ 
				                            ; –æ–±—Ä–æ–±–∫–∏ –ø
				–µ—Ä–µ—Ä–∏–≤–∞–Ω–Ω—è –≤—ñ–¥ —Ç–∞–π–º–µ—Ä–∞ 
				 
 000F  2E: 89 1E 0038 R		    mov cs:int8ptr, bx      ; –∑–±–µ—Ä–µ–≥—Ç–∏ 
				–ª–æ–≥—ñ—á–Ω—É –∞–¥—Ä–µ—Å—É —Å–∏—Å—Ç–µ–º–Ω–æ—ó 
 0014  2E: 8C 06 003A R		    mov cs:int8ptr+2, es    ; –ø—Ä–æ—Ü–µ–¥—É—Ä–
				∏ –≤ —Å–µ–≥–º–µ–Ω—Ç—ñ –∫–æ–¥—ñ–≤ 
				 
 0019  BA 005F R		    mov dx, offset userint8 ; —Ñ–æ—Ä–º—É–≤–∞–Ω–
				Ω—è –≤ ds:dx –ª–æ–≥—ñ—á–Ω–æ—ó 
 001C  1E			    push ds                 ; –∞–¥—Ä–µ—Å–∏ –ø—Ä
				–æ—Ü–µ–¥—É—Ä–∏ –∫–æ—Ä–∏—Å—Ç—É–≤–∞—á–∞ 
 001D  0E			    push cs                 ; –¥–ª—è –æ–±—Ä–æ–±
				–∫–∏ –ø–µ—Ä–µ—Ä–∏–≤–∞–Ω—å –≤—ñ–¥ —Ç–∞–π–º–µ—Ä–∞
				 
Microsoft (R) Macro Assembler Version 5.00                  5/11/17 10:39:37
                                                             Page     1-4


 001E  1F			    pop ds 
				 
 001F  B4 25			    MOV AH, 25H             ; –≤—Å—Ç–∞–Ω–æ–≤–∏—
				Ç–∏ –≤–µ–∫—Ç–æ—Ä 
 0021  B0 08			    MOV AL, 8               ; –ø–µ—Ä–µ—Ä–∏–≤–∞–
				Ω–Ω—è –≤—ñ–¥ —Ç–∞–π–º–µ—Ä–∞ 
 0023  CD 21			    INT 21H                 ; ds:dx - –ø–æ–∫–∞–
				∂—á–∏–∫ –Ω–∞ –∫–æ—Ä–∏—Å—Ç—É–≤–∞—Ü—å–∫—É 
				                            ; –ø—Ä–æ—Ü–µ–¥—É—Ä—
				É –æ–±—Ä–æ–±. –ø–µ—Ä–µ—Ä–∏–≤–∞–Ω–Ω—è –≤—ñ–¥ —Ç–
				∞–π–º–µ—Ä–∞ 
				 
				 
 0025  B8 FFFF			    mov ax, time_slice      ; –≤—Å—Ç–∞–Ω–æ–≤–∏—
				Ç–∏ –∑–∞–¥–∞–Ω—É –≤–µ–ª–∏—á–∏–Ω—É –∫–≤–∞–Ω—Ç—É 
				—á–∞—Å—É 
 0028  E6 40			    out 40h, al             ; 40h - –∞–¥—Ä–µ—Å–
				∞ 8-—Ä–æ–∑—Ä—è–¥–Ω–æ–≥–æ –ø–æ—Ä—Ç–∞ —Ç–∞–π–º–µ—
				Ä–∞,  
				                            ; —á–µ—Ä–µ–∑ —è–∫–∏
				–π –∑–∞–¥–∞—é—Ç—å –ø–µ—Ä—ñ–æ–¥ —Ç–∞–π–º–µ—Ä–∞  
				                            ; —Å–ø–æ—á–∞—Ç–∫—É 
				–º–æ–ª–æ–¥—à–∏–π –±–∞–π—Ç, 
				                            ; –∞ –ø–æ—Ç—ñ–º —Å—
				Ç–∞—Ä—à–∏–π 
				 
 002A  EB 00			    jmp $+2                 ; —Å—Ç–∞–Ω–¥–∞—Ä—Ç–
				Ω–∏–π –º–µ—Ç–æ–¥ —É–∑–≥–æ–¥–∂–µ–Ω–Ω—è —à–≤–∏–¥–
				∫—ñ—Å–Ω–æ–≥–æ 
				                            ; –ø—Ä–æ—Ü–µ—Å–æ—Ä–
				∞ –∑ –±—ñ–ª—å—à –ø–æ–≤—ñ–ª—å–Ω–∏–º –∑–æ–≤–Ω—ñ—à
				–Ω—ñ–º 
				                            ; –ø—Ä–∏—Å—Ç—Ä–æ—î–
				º. –ü—Ä–∏–ø—É—Å–∫–∞—î–º–æ, —â–æ 
				                            ; "–±–µ–∑–≥–ª—É–∑–¥
				–∞" –∫–æ–º–∞–Ω–¥–∞ jmp –æ—á–∏—â—É—î –±—É—Ñ–µ—Ä 
				                            ; –ø–æ–ø–µ—Ä–µ–¥–Ω—
				å–æ—ó –≤–∏–±—ñ—Ä–∫–∏ –∫–æ–º–∞–Ω–¥ —ñ, —Ç–∏–º —Å
				–∞–º–∏–º, 
				                            ; —É–ø–æ–≤—ñ–ª—å–Ω—
				é—î —Ä–æ–±–æ—Ç—É –ø—Ä–æ—Ü–µ—Å–æ—Ä–∞. –¢–∏–º —á–
				∞—Å–æ–º 
				                            ; –∑–æ–≤–Ω—ñ—à–Ω—ñ–
				π –ø—Ä–∏—Å—Ç—Ä—ñ–π –±—É–¥–µ –≥–æ—Ç–æ–≤–∏–π  
				                            ;–ø—Ä–∏–π–Ω—è—Ç–∏ –
				Ω–∞—Å—Ç—É–ø–Ω–∏–π –±–∞–π—Ç 
 002C  90			    nop 
				 
 002D  8A C4			    mov al, ah              ; (—Å—Ç–∞—Ä—à–∏–π –
				±–∞–π—Ç) 
 002F  E6 40			    out 40h, al 
				 
 0031  1F			    pop ds 
				 
Microsoft (R) Macro Assembler Version 5.00                  5/11/17 10:39:37
                                                             Page     1-5


 0032  C6 06 0004 R FF		    mov int8set, 0ffh       ; –∑–∞–±–æ—Ä–æ–Ω–∞ 
				–ø–æ–≤—Ç–æ—Ä–Ω–∏—Ö –≤—Ö–æ–¥–∂–µ–Ω—å 
 0037				zero_8: 
 0037  C3			    ret 
 0038  0002[			    int8ptr dw 2 dup (?) 
	   ????			
			 ]	
				
 003C				setint8 endp 
				 
				 
				;----------------------------------------------
				---------------------------- 
				;  –ü—Ä–æ—Ü–µ–¥—É—Ä–∞ –≤—ñ–¥–Ω–æ–≤–ª–µ–Ω–Ω—è –≤
				–µ–∫—Ç–æ—Ä–∞ –ø–µ—Ä–µ—Ä–∏–≤–∞–Ω–Ω—è –≤—ñ–¥ —Ç–∞
				–π–º–µ—Ä–∞ 
				;----------------------------------------------
				---------------------------- 
 003C				retint8 proc 
				;----------------------------------------------
				---------------------------- 
 003C  1E			    push ds 
 003D  52			    push dx 
				 
 003E  B0 FF			    mov al, 0ffh            ; –≤—ñ–¥–Ω–æ–≤–∏—Ç–
				∏ –Ω–æ—Ä–º–∞–ª—å–Ω—É —Ä–æ–±–æ—Ç—É 
 0040  E6 40			    out 40h, al             ; —Å–∏—Å—Ç–µ–º–Ω–æ–
				≥–æ —Ç–∞–π–º–µ—Ä–∞ 
 0042  EB 00			    jmp $+2 
 0044  90			    nop 
 0045  E6 40			    out 40h, al 
 0047  2E: 8B 16 0038 R		    mov dx, cs:int8ptr 
 004C  2E: 8E 1E 003A R		    mov ds, cs:int8ptr+2 
				 
 0051  B4 25			    MOV AH, 25H             ; –≤—ñ–¥–Ω–æ–≤–∏—Ç–
				∏ –ø–æ—á–∞—Ç–∫–æ–≤–∏–π –≤–µ–∫—Ç–æ—Ä 
 0053  B0 08			    MOV AL, 8               ; –ø–µ—Ä–µ—Ä–∏–≤–∞–
				Ω–Ω—è –≤—ñ–¥ —Ç–∞–π–º–µ—Ä–∞ 
 0055  CD 21			    INT 21H                 ; ds:dx - –≤–∫–∞–∑—
				ñ–≤–Ω–∏–∫ (–ª–æ–≥—ñ—á–Ω–∞ –∞–¥—Ä–µ—Å–∞)  
				                            ; –Ω–∞ –ø–æ—á–∞—Ç–∫
				–æ–≤—É (—Å–∏—Å—Ç–µ–º–Ω—É) –ø—Ä–æ—Ü–µ–¥—É—Ä—É 
				                            ;  –æ–±—Ä–æ–±. –ø–µ
				—Ä–µ—Ä–∏–≤–∞–Ω–Ω—è –≤—ñ–¥ —Ç–∞–π–º–µ—Ä–∞ 
 0057  5A			    pop dx 
 0058  1F			    pop ds 
 0059  C6 06 0004 R 00		    mov int8set, 0h         ; –¥–æ–∑–≤—ñ–ª –Ω–∞
				—Å—Ç—É–ø–Ω–∏—Ö "–ø–µ—Ä–µ—Ö–æ–ø–ª–µ–Ω—å" 
 005E  C3			    ret 
 005F				retint8 endp 
				 
				 
				;----------------------------------------------
				-------------- 
Microsoft (R) Macro Assembler Version 5.00                  5/11/17 10:39:37
                                                             Page     1-6


				; –ø—Ä–æ—Ü–µ–¥—É—Ä–∞ –æ–±—Ä–æ–±–∫–∏ –ø–µ—Ä–µ—Ä–
				∏–≤–∞–Ω–Ω—è –≤—ñ–¥ —Ç–∞–π–º–µ—Ä–∞ 
				; (–º–µ–Ω–µ–¥–∂–µ—Ä –∫–≤–∞–Ω—Ç—ñ–≤) 
				; –∫–æ–¥–∏ —Å—Ç–∞–Ω—É –∑–∞–¥–∞—á (–≤–∏–∫–æ—Ä–∏—
				Å—Ç–æ–≤—É—é—Ç—å—Å—è –≤ –º–∞—Å–∏–≤—ñ init) 
 = 0000				ready equ 0                 ; –∑–∞–¥–∞—á–∞ –∑–∞
				–≤–∞–Ω—Ç–∞–∂–µ–Ω–∞ –≤ –ø–∞–º‚Äô—è—Ç—å —ñ 
				                            ; –≥–æ—Ç–æ–≤–∞ –¥–æ
				 –ø–æ—á–∞—Ç–∫–æ–≤–æ–≥–æ –∑–∞–ø—É—Å–∫—É 
				                            ; —Å—Ç–∞—Ç—É—Å –≤—Å
				—Ç–∞–Ω–æ–≤–ª—é—î—Ç—å—Å—è –ø–æ–∑–∞ –º–µ–Ω–µ–¥–∂–
				µ—Ä–æ–º –∫–≤–∞–Ω—Ç—ñ–≤ 
 = 0001				execute equ 1               ; –∑–∞–¥–∞—á–∞ –≤–∏
				–∫–æ–Ω—É—î—Ç—å—Å—è 
 = 0002				hesitation equ 2            ; –∑–∞–¥–∞—á–∞ –ø—Ä
				–∏–∑—É–ø–∏–Ω–µ–Ω–∞ —ñ —á–µ–∫–∞—î —Å–≤–æ—î—ó —á–
				µ—Ä–≥–∏ 
 = 0004				close equ 4                 ; –≤–∏–∫–æ–Ω–∞–Ω–Ω—
				è –∑–∞–¥–∞—á—ñ –∑–∞–≤–µ—Ä—à–µ–Ω–æ 
 = 0008				stop equ 8                  ; –∑–∞–¥–∞—á–∞ –∑—É
				–ø–∏–Ω–µ–Ω–∞   
				                            ; —Å—Ç–∞—Ç—É—Å –≤—Å
				—Ç–∞–Ω–æ–≤–ª—é—î—Ç—å—Å—è —ñ –∑–º—ñ–Ω—é—î—Ç—å—Å—
				è 
				                            ; –ø–æ–∑–∞ –º–µ–Ω–µ
				–¥–∂–µ—Ä–∞ –∫–≤–∞–Ω—Ç—ñ–≤ 
 = 0010				absent equ 16               ; –∑–∞–¥–∞—á–∞ –≤—ñ
				–¥—Å—É—Ç–Ω—è  
				 
				;----------------------------------------------
				-------------- 
 005F				userint8 proc far 
				;----------------------------------------------
				-------------- 
 005F  66| 60			    pushad                  ; –∑–±–µ—Ä–µ–∂–µ–Ω–
				Ω—è –†–û–ù –≤ —Å—Ç–µ–∫—É –ø–µ—Ä–µ—Ä–≤–∞–Ω–æ—ó –
				∑–∞–¥–∞—á—ñ 
 0061  1E			    push ds 
				 
				; (–≤–∞—Ä—ñ–∞–Ω—Ç 3) 
 0062  9C			    pushf                   ; –ø—Ä–æ–≥—Ä–∞–º–Ω–
				∞ —ñ–º—ñ—Ç–∞—Ü—ñ—è –∞–ø–∞—Ä–∞—Ç–Ω–æ–≥–æ –ø–µ—Ä–
				µ—Ä–∏–≤–∞–Ω–Ω—è 
				                            ; –í–Ü–î–ú–Ü–¢–ò–ú–
				û - –æ–∑–Ω–∞–∫–∞ –¥–æ–∑–≤–æ–ª—É –Ω–∞ –ø–µ—Ä–µ—Ä
				–∏–≤–∞–Ω–Ω—è (if) –∞–ø–∞—Ä–∞—Ç—É—Ä–æ—é
				 
 0063  2E: FF 1E 0038 R		    call cs:dword ptr int8ptr 
				    ; –≤–∏–∫–ª–∏–∫ —Å–∏—Å—Ç–µ–º–Ω–æ—ó –ø—Ä–æ—Ü–
				µ–¥—É—Ä–∏ –æ–±—Ä–æ–±–∫–∏ –ø–µ—Ä–µ—Ä–∏–≤–∞–Ω–Ω—è
				 int8, 
				    ; —è–∫–∞, –º—ñ–∂ —ñ–Ω—à–∏–º, —Ä–æ–∑–±–ª–æ–∫
				—É—î 8-–º–µ –ø–µ—Ä–µ—Ä–∏–≤–∞–Ω–Ω—è –≤ –∫–æ–Ω—Ç—
				Ä–æ–ª–µ—Ä—ñ –ø–µ—Ä–µ—Ä–∏–≤–∞–Ω—å  
Microsoft (R) Macro Assembler Version 5.00                  5/11/17 10:39:37
                                                             Page     1-7


				    ; –∞–ª–µ –∞–ø–∞—Ä–∞—Ç–Ω—ñ –ø–µ—Ä–µ—Ä–∏–≤–∞–
				Ω–Ω—è –Ω–µ –º–æ–∂–ª–∏–≤—ñ, –æ—Å–∫—ñ–ª—å–∫–∏ if=
				0 
				                            
 0068  B8 ---- R		    mov ax, _data           ; –≤ –ø–µ—Ä–µ—Ä–≤–∞
				–Ω—ñ–π –ø—Ä–æ–≥—Ä–∞–º—ñ –≤–º—ñ—Å—Ç —Å–µ–≥–º–µ–Ω
				—Ç–Ω–æ–≥–æ —Ä–µ–≥—ñ—Å—Ç—Ä–∞ 
 006B  8E D8			    mov ds, ax              ; ds –≤ –∑–∞–≥–∞–ª—
				å–Ω–æ–º—É –≤–∏–ø–∞–¥–∫—É –º–æ–∂–µ –±—É—Ç–∏ –ª—é
				–±–∏–º 
				 
 006D  FF 06 009D R		    inc clk                 ; –ø—Ä–æ–≥—Ä–∞–º–Ω–
				∏–π –ª—ñ—á–∏–ª—å–Ω–∏–∫ –ø–µ—Ä–µ—Ä–∏–≤–∞–Ω—å –≤—
				ñ–¥ —Ç–∞–π–º–µ—Ä–∞ 
 0071  FF 36 009D R		    push clk                ; –º–æ–∂–µ –±—É—Ç–∏
				 –∫–æ—Ä–∏—Å–Ω–∏–º –ø—Ä–∏ –≤–∏–≤—á–µ–Ω–Ω—ñ –º–æ–
				¥–µ–ª—ñ 
 0075  68 0988			    push 2440 
 0078  E8 03A2 R		    call show               ; –≤–∏–≤–µ–¥–µ–Ω–Ω—
				è –Ω–∞ –µ–∫—Ä–∞–Ω –∑–Ω–∞—á–µ–Ω–Ω—è –ª—ñ—á–∏–ª—å
				–Ω–∏–∫–∞ 
				 
 007B  66| 33 F6		    xor esi, esi 
 007E  8B 36 002B R		    mov si, nprg 
 0082  83 FE 0A			    cmp si, fon             ; –ø–µ—Ä–µ—Ä–≤–∞–Ω–
				∞ –∑–∞–¥–∞—á–∞ —Ñ–æ–Ω–æ–≤–∞ ? 
 0085  0F 84 009A R		    je disp005 
				 
				                            ; –ø–µ—Ä–µ—Ä–≤–∞–Ω–
				∞ –∑–∞–¥–∞—á–∞ –Ω–µ —Ñ–æ–Ω–æ–≤–∞ 
 0089  80 BC 004D R 01		    cmp clockt[si], 1       ; —î —â–µ –Ω–µ –≤–∏
				–∫–æ—Ä–∏—Å—Ç–∞–Ω—ñ –∫–≤–∞–Ω—Ç–∏ ? 
 008E  0F 82 00AA R		    jc disp010 
				 
 0092  FE 8C 004D R		    dec clockt[si]          ; –∑–º–µ–Ω—à–∏—Ç–∏ 
				–ª—ñ—á–∏–ª—å–Ω–∏–∫ –∫–≤–∞–Ω—Ç—ñ–≤ 
 0096  1F			    pop ds 
 0097  66| 61			    popad                   ; –ø—Ä–æ–¥–æ–≤–∂–∏—
				Ç–∏ –≤–∏–∫–æ–Ω–∞–Ω–Ω—è –ø–µ—Ä–µ—Ä–≤–∞–Ω–æ—ó –∑–
				∞–¥–∞—á—ñ 
 0099  CF			    iret 
				 
 009A				disp005: 
				; –ø–µ—Ä–µ—Ä–≤–∞–Ω–∞ –∑–∞–¥–∞—á–∞ —Ñ–æ–Ω–æ–≤–∞ 
 009A  89 26 0007 R		    mov fonsp, sp 
 009E  C7 06 002B R 0009	    mov nprg, max_prg-1     ; –∑–∞–±–µ–∑–ø–µ—á–
				∏—Ç–∏ –ø–µ—Ä–µ–≥–ª—è–¥ –∑–∞–¥–∞—á –∑ 0-–≤–æ—ó 
 00A4  B9 000A			    mov cx, max_prg         ; max_prg - max –∫—
				ñ–ª—å–∫—ñ—Å—Ç—å –∑–∞–¥–∞—á 
 00A7  EB 11 90			    jmp disp015 
				 
 00AA				disp010: 
				; –ø–µ—Ä–µ—Ä–≤–∞–Ω–∞ –∑–∞–¥–∞—á–∞ –Ω–µ —Ñ–æ–Ω–æ
				–≤–∞ 
Microsoft (R) Macro Assembler Version 5.00                  5/11/17 10:39:37
                                                             Page     1-8


 00AA  67| 89 2475 0000000B	    mov stp[esi*2], sp 
	R			
 00B2  C6 84 002D R 02		    mov init[si], hesitation    ; –ø—Ä–∏–∑—É–ø–
				∏–Ω–∏—Ç–∏ –ø–æ—Ç–æ—á–Ω—É –∑–∞–¥–∞—á—É 
 00B7  B9 000A			    mov cx, max_prg 
				 
 00BA				disp015: 
				; –≤–∏–∑–Ω–∞—á–µ–Ω–Ω—è –∑–∞–¥–∞—á—ñ, —è–∫—ñ–π –
				Ω–µ–æ–±—Ö—ñ–¥–Ω–æ –ø–µ—Ä–µ–¥–∞—Ç–∏ —É–ø—Ä–∞–≤–ª
				—ñ–Ω–Ω—è 
 00BA  BF 000B			    mov di, max_prg+1 
 00BD  2B F9			    sub di, cx 
 00BF  03 3E 002B R		    add di, nprg 
 00C3  83 FF 0A			    cmp di, max_prg 
 00C6  0F 82 00CD R		    jc disp018 
 00CA  83 EF 0A			    sub di, max_prg 
				 
 00CD				disp018: 
 00CD  66| 33 DB		    xor ebx, ebx 
 00D0  8B DF			    mov bx, di 
				    ;push bx 
				    ;push 3220 
				    ;call show 
				 
				    ; —Å—Ö –ø—Ä–æ–±—ñ–≥–∞—î –∑–Ω–∞—á–µ–Ω–Ω—è ma
				x_prg,max_prg-1,...,2,1 
				    ; bx –ø—Ä–æ–±—ñ–≥–∞—î –∑–Ω–∞—á–µ–Ω–Ω—è nprg
				+1,nprg+2,...,max_prg-1,0,...,nprg 
				 
 00D2  80 BF 002D R 00		    cmp init[bx], ready 
 00D7  0F 84 0111 R		    je disp100                  ; –ø–µ—Ä–µ—Ö—ñ–
				¥ –Ω–∞ –ø–æ—á–∞—Ç–∫–æ–≤–∏–π –∑–∞–ø—É—Å–∫ –∑–∞–¥
				–∞—á—ñ 
				 
 00DB  80 BF 002D R 02		    cmp init[bx], hesitation 
 00E0  0F 84 00F4 R		    je disp020                  ; –ø–µ—Ä–µ—Ö—ñ–
				¥ –Ω–∞ –≤—ñ–¥–Ω–æ–≤–ª–µ–Ω–Ω—è —Ä–æ–±–æ—Ç–∏ 
				                                ; –Ω–∞—Å—Ç—É–ø–
				Ω–æ—ó –∑–∞–¥–∞—á—ñ 
 00E4  E2 D4			    loop disp015 
				 
				                                ; –≤—ñ–¥—Å—É—Ç–
				Ω—ñ  –∑–∞–¥–∞—á—ñ, —è–∫—ñ –º–æ–∂–Ω–∞ –∑–∞–ø—É—Å
				—Ç–∏—Ç—å 
				                                ; (–ø–µ—Ä–µ–∑–∞
				–ø—É—Å—Ç–∏—Ç–∏), —Ç–æ–º—É  
				                                ;  
 00E6  8B 26 0007 R		    mov sp, fonsp               ; —É—Å—Ç–∞–Ω–æ–
				≤–ª—é—î–º–æ —Å—Ç–µ–∫ —Ñ–æ–Ω–æ–≤–æ—ó –∑–∞–¥–∞—á—
				ñ 
 00EA  C7 06 002B R 000A	    mov nprg, fon 
 00F0  1F			    pop ds                      ; —ñ–∑ —Å—Ç–µ–∫
				–∞ —Ñ–æ–Ω–æ–≤–æ—ó –∑–∞–¥–∞—á—ñ –≤—ñ–¥–Ω–æ–≤–ª—é
				—î–º–æ 
Microsoft (R) Macro Assembler Version 5.00                  5/11/17 10:39:37
                                                             Page     1-9


 00F1  66| 61			    popad                       ; –≤–º—ñ—Å—Ç —Ä
				–µ–≥—ñ—Å—Ç—Ä—ñ–≤ 
 00F3  CF			    iret                        ; –ø–æ–≤–µ—Ä–Ω–
				µ–Ω–Ω—è –≤ —Ñ–æ–Ω–æ–≤—É –∑–∞–¥–∞—á—É 
				  
				 
 00F4				disp020: 
				; –≤—ñ–¥–Ω–æ–≤–ª–µ–Ω–Ω—è —Ä–æ–±–æ—Ç–∏ –Ω–∞—Å—Ç—
				É–ø–Ω–æ—ó –∑–∞–¥–∞—á—ñ 
				    ;push bx 
				    ;push 2480 
				    ;call show 
 00F4  89 1E 002B R		    mov nprg, bx 
 00F8  67| 8B 245D 0000000B	    mov sp, stp[ebx*2] 
	R			
 0100  8A 87 003D R		    mov al, clock[bx] 
 0104  88 87 004D R		    mov clockt[bx], al          ; –≤—Å—Ç–∞–Ω–æ–
				≤–∏—Ç–∏ –¥–æ–∑–≤–æ–ª–µ–Ω—É 
				                                ; –∫—ñ–ª—å–∫—ñ—
				Å—Ç—å –∫–≤–∞–Ω—Ç—ñ–≤ 
 0108  C6 87 002D R 01		    mov init[bx], execute       ; —Å—Ç–∞–Ω –∑–∞
				–¥–∞—á—ñ - –∑–∞–¥–∞—á–∞ –≤–∏–∫–æ–Ω—É—î—Ç—å—Å—è 
				 
 010D  1F			    pop ds 
 010E  66| 61			    popad 
 0110  CF			    iret 
				 
 0111				disp100: 
				; –ø–µ—Ä—à–æ–ø–æ—á–∞—Ç–∫–æ–≤–∏–π –∑–∞–ø—É—Å–∫ –
				∑–∞–¥–∞—á—ñ 
 0111  89 1E 002B R		    mov nprg, bx 
 0115  67| 8B 245D 0000000B	    mov sp, stp[ebx*2] 
	R			
 011D  8A 87 003D R		    mov al, clock[bx] 
 0121  88 87 004D R		    mov clockt[bx], al          ; –≤—Å—Ç–∞–Ω–æ–
				≤–∏—Ç–∏ –¥–æ–∑–≤–æ–ª–µ–Ω—É 
				                                ; –∫—ñ–ª—å–∫—ñ—
				Å—Ç—å –∫–≤–∞–Ω—Ç—ñ–≤ 
 0125  C6 87 002D R 01		    mov init[bx], execute 
				 
 012A  67| FF 345D 0000007D	    push names[ebx*2]           ; —ñ–º'—è –∑–∞–
				¥–∞—á—ñ 
	R			
 0132  67| FF 345D 0000005D	    push screen_addr[ebx*2]     ; –∞–¥—Ä–µ—Å–∞ 
				"–≤—ñ–∫–Ω–∞" –¥–ª—è –∑–∞–¥–∞—á—ñ –Ω–∞ –µ–∫—Ä–∞–
				Ω—ñ  
	R			
 013A  6A 16			    push 22                     ; —Ä–æ–∑—Ä—è–¥–
				Ω—ñ—Å—Ç—å –ª—ñ—á–∏–ª—å–Ω–∏–∫–∞ 
 013C  E8 0328 R		    call Vcount                 ; –∑–∞–ø—É—Å–∫ 
				 
				 
 013F  66| 33 F6		    xor esi, esi 
 0142  8B 36 002B R		    mov si, nprg                ; –Ω–∞ ax - –Ω–
Microsoft (R) Macro Assembler Version 5.00                  5/11/17 10:39:37
                                                             Page     1-10


				æ–º–µ—Ä –∑–∞–¥–∞—á—ñ, —è–∫–∞ 
				                                ; –∑–∞–≤–µ—Ä—à–
				∏–ª–∞ —Å–≤–æ—é —Ä–æ–±–æ—Ç—É –≤ –º–µ–∂–∞—Ö 
				                                ; —á–µ—Ä–≥–æ–≤–
				æ–≥–æ –∫–≤–∞–Ω—Ç—É —á–∞—Å—É 
 0146  C6 84 002D R 04		    mov init[si], close 
 014B  8B 26 0007 R		    mov sp, fonsp 
 014F  C7 06 002B R 000A	    mov nprg, fon 
 0155  1F			    pop ds 
 0156  66| 61			    popad 
 0158  CF			    iret                        ; –ø–æ–≤–µ—Ä–Ω–
				µ–Ω–Ω—è –≤ —Ñ–æ–Ω–æ–≤—É –∑–∞–¥–∞—á—É 
 0159				userint8 endp 
				 
				 
				;----------------------------------------------
				-------------- 
 0159				setint9 proc 
				;----------------------------------------------
				------------- 
				;  –ø—Ä–æ—Ü–µ–¥—É—Ä–∞ "–ø–µ—Ä–µ—Ö–æ–ø–ª–µ–Ω–Ω—è
				" –ø–µ—Ä–µ—Ä–∏–≤–∞–Ω–Ω—è –≤—ñ–¥ –∫–ª–∞–≤—ñ–∞—Ç—
				É—Ä–∏ (int9) 
				;----------------------------------------------
				-------------- 
 0159  A0 0005 R		    mov al, int9set 
 015C  0A C0			    or al, al 
 015E  0F 85 0184 R		    jnz zero_9 
 0162  B4 35			    mov ah, 35h             ; –æ—Ç—Ä–∏–º–∞—Ç–∏ 
				–≤–µ–∫—Ç–æ—Ä –ø–µ—Ä–µ—Ä–∏–≤–∞–Ω–Ω—è 
 0164  B0 09			    mov al, 9               ; –ø–µ—Ä–µ—Ä–∏–≤–∞–
				Ω–Ω—è –≤—ñ–¥ –∫–ª–∞–≤—ñ–∞—Ç—É—Ä–∏ (9) 
 0166  CD 21			    int 21h                 ; –∑–Ω–∞—á–µ–Ω–Ω—è 
				—â–æ –ø–æ–≤–µ—Ä—Ç–∞—î—Ç—å—Å—è: 
				                            ; es:bx - –≤–∫–∞–∑—
				ñ–≤–Ω–∏–∫ –Ω–∞ —Å–∏—Å—Ç–µ–º–Ω—É –ø—Ä–æ—Ü–µ–¥—É—
				Ä—É 
				                            ; –æ–±—Ä–æ–±–∫–∏ –ø
				–µ—Ä–µ—Ä–∏–≤–∞–Ω–Ω—è –≤—ñ–¥ –∫–ª–∞–≤—ñ–∞—Ç—É—Ä–
				∏ 
				 
 0168  2E: 89 1E 0185 R		    mov cs:int9ptr, bx      ; –∑–±–µ—Ä–µ–≥—Ç–∏ 
				–≤ —Å–µ–≥–º–µ–Ω—Ç—ñ –∫–æ–¥—ñ–≤ –≤–∫–∞–∑—ñ–≤–Ω–∏
				–∫  
 016D  2E: 8C 06 0187 R		    mov cs:int9ptr+2, es    ; –Ω–∞ —Å–∏—Å—Ç–µ–º
				–Ω—É –ø—Ä–æ—Ü–µ–¥—É—Ä—É 
				 
 0172  BA 01A3 R		    mov dx, offset userint9 
 0175  1E			    push ds 
 0176  0E			    push cs                 ; ds:dx - –≤–∫–∞–∑—
				ñ–≤–Ω–∏–∫ –Ω–∞ –ø—Ä–æ—Ü–µ–¥—É—Ä—É –∫–æ—Ä–∏—Å—Ç—
				É–≤–∞—á–∞ 
 0177  1F			    pop ds                  ; –æ–±—Ä–æ–±. –ø–µ—
				Ä–µ—Ä–∏–≤–∞–Ω–Ω—è –≤—ñ–¥ –∫–ª–∞–≤—ñ–∞—Ç—É—Ä–∏ 
Microsoft (R) Macro Assembler Version 5.00                  5/11/17 10:39:37
                                                             Page     1-11


				 
 0178  B4 25			    mov ah, 25h             ; –≤—Å—Ç–∞–Ω–æ–≤–∏—
				Ç–∏ –≤–µ–∫—Ç–æ—Ä "–ø–µ—Ä–µ—Ö–æ–ø–ª–µ–Ω–Ω—è" 
 017A  B0 09			    mov al, 9               ; –ø–µ—Ä–µ—Ä–∏–≤–∞–
				Ω–Ω—è –≤—ñ–¥ –∫–ª–∞–≤—ñ–∞—Ç—É—Ä–∏ (9) 
 017C  CD 21			    int 21h 
 017E  1F			    pop ds 
				 
 017F  C6 06 0005 R FF		    mov int9set, 0ffh       ; –∑–∞–±–æ—Ä–æ–Ω–∞ 
				–ø–æ–≤—Ç–æ—Ä–Ω–∏—Ö –≤—Ö–æ–¥–∂–µ–Ω—å 
				 
 0184				zero_9: 
 0184  C3			    ret 
 0185  0002[			    int9ptr dw 2 dup (?) 
	   ????			
			 ]	
				
 0189				setint9 endp 
				 
				 
				;----------------------------------------------
				---------------------------- 
				;  –ü—Ä–æ—Ü–µ–¥—É—Ä–∞ –≤—ñ–¥–Ω–æ–≤–ª–µ–Ω–Ω—è –ø
				–æ–ø–µ—Ä–µ–¥–Ω—å–æ–≥–æ (—Å–∏—Å—Ç–µ–º–Ω–æ–≥–æ) 
				;  –≤–µ–∫—Ç–æ—Ä–∞ –ø–µ—Ä–µ—Ä–∏–≤–∞–Ω–Ω—è –≤—ñ–¥
				 –∫–ª–∞–≤—ñ–∞—Ç—É—Ä–∏ 
				;----------------------------------------------
				---------------------------- 
 0189				retint9 proc 
				;----------------------------------------------
				---------------------------- 
 0189  1E			    push ds 
 018A  52			    push dx 
 018B  2E: 8B 16 0185 R		    mov dx, cs:int9ptr      ; ds:dx - –ø–æ–∫–∞–
				∂—á–∏–∫ –Ω–∞ –ø–æ—á–∞—Ç–∫–æ–≤—É (—Å–∏—Å—Ç–µ–º–Ω
				—É) 
 0190  2E: 8E 1E 0187 R		    mov ds, cs:int9ptr+2    ; –ø—Ä–æ—Ü–µ–¥—É—Ä—
				É –æ–±—Ä–æ–±–∫–∏ –ø–µ—Ä–µ—Ä–∏–≤–∞–Ω–Ω—è –≤—ñ–¥ 
				                            ; –∫–ª–∞–≤—ñ–∞—Ç—É—
				Ä–∏ 
				 
 0195  B4 25			    mov ah, 25h             ; –≤—Å—Ç–∞–Ω–æ–≤–∏—
				Ç–∏ –≤–µ–∫—Ç–æ—Ä —Å–∏—Å—Ç–µ–º–Ω–æ—ó –ø—Ä–æ—Ü–µ–
				¥—É—Ä–∏ 
 0197  B0 09			    mov al, 9               ; –æ–±—Ä–æ–±–∫–∏ –ø
				–µ—Ä–µ—Ä–∏–≤–∞–Ω–Ω—è –≤—ñ–¥ –∫–ª–∞–≤—ñ–∞—Ç—É—Ä–
				∏ 
 0199  CD 21			    int 21h 
				 
 019B  5A			    pop dx 
 019C  1F			    pop ds 
 019D  C6 06 0005 R 00		    mov int9set, 0h         ; –¥–æ–∑–≤—ñ–ª –Ω–∞
				—Å—Ç—É–ø–Ω–∏—Ö "–ø–µ—Ä–µ—Ö–æ–ø–ª–µ–Ω—å" 
 01A2  C3			    ret 
Microsoft (R) Macro Assembler Version 5.00                  5/11/17 10:39:37
                                                             Page     1-12


 01A3				retint9 endp 
				 
				 
				;----------------------------------------------
				------------------------------ 
				; –ü—Ä–æ—Ü–µ–¥—É—Ä–∞ –æ–±—Ä–æ–±–∫–∏ –ø–µ—Ä–µ—Ä–
				∏–≤–∞–Ω—å –≤—ñ–¥ –∫–ª–∞–≤—ñ–∞—Ç—É—Ä–∏, 
				; –≤–∏–∫–ª–∏–∫–∞—î—Ç—å—Å—è –ø—Ä–∏ –ª—é–±–æ–º—É 
				–Ω–∞—Ç–∏—Å–∫–∞–Ω–Ω—ñ –∞–±–æ –≤—ñ–¥—Ç–∏—Å–∫–∞–Ω–
				Ω—ñ –∫–ª–∞–≤—ñ—à –∫–ª–∞–≤—ñ–∞—Ç—É—Ä–∏,
				; –∑–¥—ñ–π—Å–Ω—é—î –ø–æ–≤–µ—Ä–Ω–µ–Ω–Ω—è –≤ MS-D
				OS –ø—ñ—Å–ª—è –≤—ñ–¥—Ç–∏—Å–∫–∞–Ω–Ω—è –∫–ª–∞–≤—ñ
				—à—ñ Esc 
				;----------------------------------------------
				------------------------------ 
 01A3				userint9 proc far 
				;----------------------------------------------
				------------------------------ 
 = 0001				    esc_key equ 01h         ; —Å–∫–∞–Ω-–∫–æ–¥ –
				∫–ª–∞–≤—ñ—à—ñ esc 
 01A3  60			    pusha 
 01A4  06			    push es 
 01A5  E4 60			    in al, 60h              ; –≤–≤–µ—Å—Ç–∏ —Å–∫
				–∞–Ω-–∫–æ–¥ - —Ä–æ–∑—Ä—è–¥–∏ 0-6 
 01A7  8A E0			    mov ah, al              ; 7-–∏–π —Ä–æ–∑—Ä—è
				–¥ –¥–æ—Ä—ñ–≤–Ω—é—î 0 –ø—Ä–∏ –Ω–∞—Ç–∏—Å–∫–∞–Ω–Ω
				—ñ 
 01A9  24 7F			    and al, 7fh             ; –∫–ª–∞–≤—ñ—à—ñ, 1
				- –ø—Ä–∏ –≤—ñ–¥—Ç–∏—Å–∫–∞–Ω–Ω—ñ 
				 
				    ;push ax                ; al - "—á–∏—Å—Ç–∏–
				π" —Å–∫–∞–Ω-–∫–æ–¥ (–±–µ–∑ –æ–∑–Ω–∞–∫–∏  
				                            ; –Ω–∞—Ç–∏—Å–∫–∞–Ω–
				Ω—è - –≤—ñ–¥—Ç–∏—Å–∫–∞–Ω–Ω—è)  
				    ;push 2600 
				    ;call show              ; –≤—ñ–¥–æ–±—Ä–∞–∂–
				µ–Ω–Ω—è —Å–∫–∞–Ω-–∫–æ–¥—É –Ω–∞ –µ–∫—Ä–∞–Ω—ñ 
				 
 01AB  3C 01			    cmp al, esc_key 
 01AD  0F 84 01B8 R		    je ui9010 
				 
				; (–≤–∞—Ä—ñ–∞–Ω—Ç 2) 
 01B1  07			    pop es 
 01B2  61			    popa 
 01B3  2E: FF 2E 0185 R		    jmp dword ptr cs:int9ptr    ; –ø–µ—Ä–µ—Ö—ñ–
				¥ –Ω–∞ —Å–∏—Å—Ç–µ–º–Ω—É 
				                                ; –ø—Ä–æ—Ü–µ–¥—
				É—Ä—É –æ–±—Ä–æ–±–∫–∏ 
				                                ; –ø–µ—Ä–µ—Ä–∏–
				≤–∞–Ω—å –≤—ñ–¥ –∫–ª–∞–≤—ñ–∞—Ç—É—Ä–∏, —è–∫–∞ 
				                                ; –≤–∏–∫–æ–Ω–∞—
				î –≤—Å—ñ –Ω–µ–æ–±—Ö—ñ–¥–Ω—ñ –¥—ñ—ó, –≤–∫–ª—é—á–
				∞—é—á–∏ 
				                                ; –ø–æ–≤–µ—Ä–Ω–
Microsoft (R) Macro Assembler Version 5.00                  5/11/17 10:39:37
                                                             Page     1-13


				µ–Ω–Ω—è –≤ –ø–µ—Ä–µ—Ä–≤–∞–Ω—É –ø—Ä–æ–≥—Ä–∞–º—É 
				 
				; (–≤–∞—Ä—ñ–∞–Ω—Ç 1) 
				; –°–ê–ú–û–°–¢–Ü–ô–ù–ï –í–ò–†–Ü–®–ï–ù–ù–Ø –ü–†–
				û–ë–õ–ï–ú –ó –ö–õ–ê–í–Ü–ê–¢–£–†–û–Æ 
				 
 01B8				ui9010: 
 01B8  8B D8			    mov bx, ax 
 01BA  E4 61			    in al, 61h              ; –±—ñ—Ç 7 –ø–æ—Ä—Ç
				–∞ 61h –ø—Ä–∏–∑–Ω–∞—á–µ–Ω–∏–π –¥–ª—è –≤–≤–µ–¥–µ
				–Ω–Ω—è 
				                            ; –ø—ñ–¥—Ç–≤–µ—Ä–¥–
				∂—É—é—á–æ–≥–æ —ñ–º–ø—É–ª—å—Å—É –≤ –∫–ª–∞–≤—ñ–∞—
				Ç—É—Ä—É –ü–ï–û–ú. 
				                            ; –ö–ª–∞–≤—ñ–∞—Ç—É—
				Ä–∞ –±–ª–æ–∫—É—î—Ç—å—Å—è –ø–æ–∫–∏ –Ω–µ –Ω–∞–¥—ñ
				–π–¥–µ 
				                            ; –ø—ñ–¥—Ç–≤–µ—Ä–¥–
				∂—É—é—á–∏–π —ñ–º–ø—É–ª—å—Å 
				 
 01BC  8A E0			    mov ah, al 
 01BE  0C 80			    or al, 80h              ;                  
				         | 
 01C0  E6 61			    out 61h, al             ; –≤–∏–≤–µ–¥–µ–Ω–Ω—
				è –Ω–∞ –∫–ª–∞–≤—ñ–∞—Ç—É—Ä—É   ‚îî‚îÄ‚îÄ‚îÄ‚îê  
				    
 01C2  EB 00			    jmp $+2                 ;                  
				             | 
 01C4  8A C4			    mov al, ah              ;                  
				             | 
 01C6  E6 61			    out 61h, al             ; –ø—ñ–¥—Ç–≤–µ—Ä–¥–
				∂—É—é—á–æ–≥–æ —ñ–º–ø—É–ª—å—Å—É  ‚îå‚îÄ‚îÄ‚îÄ‚îò
				 
				 
 01C8  B0 20			    mov al, 20h             ; —Ä–æ–∑–±–ª–æ–∫—É–
				≤–∞—Ç–∏ –≤ –∫–æ–Ω—Ç—Ä–æ–ª–µ—Ä—ñ –ø–µ—Ä–µ—Ä–∏–≤–
				∞–Ω–Ω—è 
				                            ; –ø—Ä–æ—Ö–æ–¥–∂–µ–
				Ω–Ω—è –∑–∞–ø–∏—Ç—ñ–≤ –Ω–∞ –ø–µ—Ä–µ—Ä–∏–≤–∞–Ω–Ω—
				è  
				                            ; –ø–æ—Ç–æ—á–Ω–æ–≥–
				æ —Ç–∞ –º–µ–Ω—à–æ–≥–æ —Ä—ñ–≤–Ω—ñ–≤ –ø—Ä—ñ–æ—Ä–∏
				—Ç–µ—Ç—É, 
 01CA  E6 20			    out 20h, al             ; —â–æ –∑–∞–±–µ–∑–ø
				–µ—á–∏—Ç—å –º–æ–∂–ª–∏–≤—ñ—Å—Ç—å –Ω–∞—Å—Ç—É–ø–Ω–
				æ–≥–æ  
				                            ; –ø–µ—Ä–µ—Ä–∏–≤–∞–
				Ω–Ω—è –≤—ñ–¥ –∫–ª–∞–≤—ñ–∞—Ç—É—Ä–∏ 
				 
 01CC  8B C3			    mov ax, bx 
 01CE  3A E0			    cmp ah, al              ; –ø–µ—Ä–µ–≤—ñ—Ä–∫–
				∞ –ø–æ–¥—ñ—ó –ø–µ—Ä–µ—Ä–∏–≤–∞–Ω–Ω—è - –≤—ñ–¥ –Ω
				–∞—Ç–∏—Å–∫–∞–Ω–Ω—è 
				                            ; —á–∏ –≤—ñ–¥ –≤—ñ–
Microsoft (R) Macro Assembler Version 5.00                  5/11/17 10:39:37
                                                             Page     1-14


				¥—Ç–∏—Å–∫–∞–Ω–Ω—è –∫–ª–∞–≤—ñ—à—ñ –∫–ª–∞–≤—ñ–∞—Ç
				—É—Ä–∏ 
 01D0  0F 84 01F1 R		    je ui9040 
				                            ; –≤—ñ–¥—Ç–∏—Å–∫–∞–
				Ω–Ω—è –∫–ª–∞–≤—ñ—à—ñ 
				 
 01D4				ui9020: 
 01D4  06			    push es 
 01D5  C4 1E 0000 R		    les bx, @ms_dos_busy    ; es:bx - –∞–¥—Ä–µ—
				Å–∞ –æ–∑–Ω–∞–∫–∏  
				                            ; –∑–∞–π–Ω—è—Ç–æ—Å—
				Ç—ñ MS-DOS 
 01D9  26: 8A 07		    mov al, es:[bx]         ; ax - –æ–∑–Ω–∞–∫–∞
				 –∑–∞–π–Ω—è—Ç–æ—Å—Ç—ñ MS-DOS 
 01DC  07			    pop es 
 01DD  0A C0			    or al, al               ; –ø–µ—Ä–µ–≤—ñ—Ä–∫–
				∞ 
				                            ; —è–∫—â–æ –±—É–ª–∞
				 –ø–µ—Ä–µ—Ä–≤–∞–Ω–∞ —Ä–æ–±–æ—Ç–∞ MS-DOS 
				                            ; –≤ "–Ω–µ–≤–¥–∞–ª–
				∏–π" –º–æ–º–µ–Ω—Ç 
 01DF  0F 85 01F1 R		    jnz ui9040              ; —Ç–æ –Ω–µ –º–æ–∂–
				Ω–∞ –≤—ñ–¥ –Ω–µ—ó –≤–∏–º–∞–≥–∞—Ç–∏ 
				                            ; –≤–∏–∫–æ–Ω–∞–Ω–Ω—
				è —Ä—è–¥—É —Ñ—É–Ω–∫—Ü—ñ–π 
				                            ; (–≤ –∑–∞–≥–∞–ª—å–
				Ω–æ–º—É –≤–∏–ø–∞–¥–∫—É MS-DOS –Ω–µ –∑–∞–±–µ–∑–ø
				–µ—á—É—î –ø–æ–≤—Ç–æ—Ä–Ω–µ –≤—Ö–æ–¥–∂–µ
				 
 01E3  E8 003C R		    call retint8 
 01E6  E8 0189 R		    call retint9 
 01E9  E8 022E R		    call retint33 
 01EC  B8 4C00			    mov ax,4c00h 
 01EF  CD 21			    int 21h                 ; –ó–ê–ö–Ü–ù–ß–ò–¢–
				ò –†–û–ë–û–¢–£ 
				                            ; –ë–ê–ì–ê–¢–û–ü–†–
				û–ì–†–ê–ú–ù–û–á –ú–û–î–ï–õ–Ü 
 01F1				ui9040: 
 01F1  07			    pop es                  ; –≤—ñ–¥–Ω–æ–≤–∏—Ç–
				∏ —Å—Ç–µ–∫ –ø–µ—Ä–µ—Ä–≤–∞–Ω–æ—ó –ø—Ä–æ–≥—Ä–∞–º–
				∏ 
 01F2  61			    popa 
 01F3  CF			    iret                    ; –∑–∞–∫—ñ–Ω—á–∏—Ç–
				∏ –æ–±—Ä–æ–±–∫—É –ø–µ—Ä–µ—Ä–∏–≤–∞–Ω–Ω—è 
 01F4				userint9 endp 
				 
				 
				;----------------------------------------------
				---------------------------- 
				;  –ø—Ä–æ—Ü–µ–¥—É—Ä–∞ "–ø–µ—Ä–µ—Ö–æ–ø–ª–µ–Ω–Ω—è
				" –ø–µ—Ä–µ—Ä–∏–≤–∞–Ω–Ω—è –≤—ñ–¥ –º–∏—à–∫–∏ (int
				33) 
				;----------------------------------------------
				---------------------------- 
Microsoft (R) Macro Assembler Version 5.00                  5/11/17 10:39:37
                                                             Page     1-15


 01F4				setint33 proc 
				;----------------------------------------------
				---------------------------- 
 01F4  A0 0006 R		    mov al, int33set 
 01F7  0A C0			    or  al, al 
 01F9  0F 85 0229 R		    jnz zero_33h 
 01FD  B4 35			    mov ah, 35h             ; –æ—Ç—Ä–∏–º–∞—Ç–∏ 
				–≤–µ–∫—Ç–æ—Ä –ø–µ—Ä–µ—Ä–∏–≤–∞–Ω–Ω—è 
 01FF  B0 74			    mov al, 74h             ; –ø–µ—Ä–µ—Ä–∏–≤–∞–
				Ω–Ω—è –≤—ñ–¥ –º–∏—à–∫–∏ (74) 
 0201  CD 21			    int 21h                 ; –∑–Ω–∞—á–µ–Ω–Ω—è 
				—â–æ –ø–æ–≤–µ—Ä—Ç–∞—î—Ç—å—Å—è: 
				                            ; es:bx - –≤–∫–∞–∑—
				ñ–≤–Ω–∏–∫ –Ω–∞ —Å–∏—Å—Ç–µ–º–Ω—É –ø—Ä–æ—Ü–µ–¥—É—
				Ä—É 
				                            ; –æ–±—Ä–æ–±–∫–∏ –ø
				–µ—Ä–µ—Ä–∏–≤–∞–Ω–Ω—è –≤—ñ–¥ –º–∏—à–∫–∏ 
				 
 0203  2E: 89 1E 022A R		    mov cs:int33ptr, bx     ; –∑–±–µ—Ä–µ–≥—Ç–∏ 
				–ª–æ–≥—ñ—á–Ω—É –∞–¥—Ä–µ—Å—É —Å–∏—Å—Ç–µ–º–Ω–æ—ó 
 0208  2E: 8C 06 022C R		    mov cs:int33ptr+2, es   ; –ø—Ä–æ—Ü–µ–¥—É—Ä–
				∏ –≤ —Å–µ–≥–º–µ–Ω—Ç—ñ –∫–æ–¥—ñ–≤ 
				 
 020D  B8 0000			    mov ax, 0               ; —ñ–Ω—ñ—Ü—ñ–∞–ª—ñ–
				∑—É–≤–∞—Ç–∏ –º–∏—à–∫—É 
 0210  CD 33			    int 33h 
				 
 0212  B8 0001			    mov ax, 1               ; –≤—ñ–¥–æ–±—Ä–∞–∑–
				∏—Ç–∏ –∫—É—Ä—Å–æ—Ä 
 0215  CD 33			    int 33h 
				 
 0217  BA 024D R		    mov dx, offset userint33 
 021A  1E			    push ds 
 021B  0E			    push cs                 ; ds:dx - –≤–∫–∞–∑—
				ñ–≤–Ω–∏–∫ –Ω–∞ –ø—Ä–æ—Ü–µ–¥—É—Ä—É –∫–æ—Ä–∏—Å—Ç—
				É–≤–∞—á–∞ 
 021C  1F			    pop ds                  ; –æ–±—Ä–æ–±. –ø–µ—
				Ä–µ—Ä–∏–≤–∞–Ω–Ω—è –≤—ñ–¥ –º–∏—à–∫–∏ 
				 
 021D  B4 25			    mov ah, 25h             ; –≤—Å—Ç–∞–Ω–æ–≤–∏—
				Ç–∏ –≤–µ–∫—Ç–æ—Ä "–ø–µ—Ä–µ—Ö–æ–ø–ª–µ–Ω–Ω—è" 
 021F  B0 74			    mov al, 74h             ; –ø–µ—Ä–µ—Ä–∏–≤–∞–
				Ω–Ω—è –≤—ñ–¥ –º–∏—à–∫–∏ (74) 
 0221  CD 21			    int 21h 
 0223  1F			    pop ds 
				 
 0224  C6 06 0006 R FF		    mov int33set, 0ffh      ; –∑–∞–±–æ—Ä–æ–Ω–∞ 
				–ø–æ–≤—Ç–æ—Ä–Ω–∏—Ö –≤—Ö–æ–¥–∂–µ–Ω—å 
 0229				zero_33h: 
 0229  C3			    ret 
 022A  0002[			    int33ptr dw 2 dup (?) 
	   ????			
			 ]	
				
Microsoft (R) Macro Assembler Version 5.00                  5/11/17 10:39:37
                                                             Page     1-16


 022E				setint33 endp 
				 
				 
				;----------------------------------------------
				---------------------------- 
				;  –ü—Ä–æ—Ü–µ–¥—É—Ä–∞ –≤—ñ–¥–Ω–æ–≤–ª–µ–Ω–Ω—è –ø
				–æ–ø–µ—Ä–µ–¥–Ω—å–æ–≥–æ (—Å–∏—Å—Ç–µ–º–Ω–æ–≥–æ) 
				;  –≤–µ–∫—Ç–æ—Ä–∞ –ø–µ—Ä–µ—Ä–∏–≤–∞–Ω–Ω—è –≤—ñ–¥
				 –º–∏—à–∫–∏ 
				;----------------------------------------------
				---------------------------- 
 022E				retint33 proc 
				;----------------------------------------------
				---------------------------- 
 022E  60			    pusha 
 022F  1E			    push ds 
				 
 0230  2E: 8B 16 022A R		    mov dx, cs:int33ptr     ; ds:dx - –ø–æ–∫–∞–
				∂—á–∏–∫ –Ω–∞ –ø–æ—á–∞—Ç–∫–æ–≤—É (—Å–∏—Å—Ç–µ–º–Ω
				—É) 
 0235  2E: 8E 1E 022C R		    mov ds, cs:int33ptr+2   ; –ø—Ä–æ—Ü–µ–¥—É—Ä—
				É –æ–±—Ä–æ–±–∫–∏ –ø–µ—Ä–µ—Ä–∏–≤–∞–Ω–Ω—è –≤—ñ–¥ 
				–º–∏—à–∫–∏ 
				 
 023A  B4 25			    mov ah, 25h             ; –≤—Å—Ç–∞–Ω–æ–≤–∏—
				Ç–∏ –≤–µ–∫—Ç–æ—Ä —Å–∏—Å—Ç–µ–º–Ω–æ—ó –ø—Ä–æ—Ü–µ–
				¥—É—Ä–∏ 
 023C  B0 74			    mov al, 74h             ; –æ–±—Ä–æ–±–∫–∏ –ø
				–µ—Ä–µ—Ä–∏–≤–∞–Ω–Ω—è –≤—ñ–¥ –º–∏—à–∫–∏ 
 023E  CD 21			    int 21h 
				 
 0240  B8 0002			    mov ax, 2               ; —Å—Ö–æ–≤–∞—Ç–∏ –∫
				—É—Ä—Å–æ—Ä 
 0243  CD 33			    int 33h 
				 
 0245  1F			    pop ds 
 0246  61			    popa 
 0247  C6 06 0006 R 00		    mov int33set, 0h        ; –¥–æ–∑–≤—ñ–ª –Ω–∞
				—Å—Ç—É–ø–Ω–∏—Ö "–ø–µ—Ä–µ—Ö–æ–ø–ª–µ–Ω—å" 
 024C  C3			    ret 
 024D				retint33 endp 
				 
				 
				;----------------------------------------------
				------------------------------ 
				; –ü—Ä–æ—Ü–µ–¥—É—Ä–∞ –æ–±—Ä–æ–±–∫–∏ –ø–µ—Ä–µ—Ä–
				∏–≤–∞–Ω—å –≤—ñ–¥ –º–∏—à–∫–∏, 
				; –≤–∏–∫–ª–∏–∫–∞—î—Ç—å—Å—è –ø—Ä–∏ –Ω–∞—Ç–∏—Å–Ω–
				µ–Ω–Ω—ñ –Ω–∞ –ø—Ä–∞–≤—É –∫–ª–∞–≤—ñ—à—É –º–∏—à–∫
				–∏, 
				; –∑–Ω—ñ–º–∞—î –≤—Å—ñ –∑–∞–¥–∞—á—ñ, –∫—Ä—ñ–º –∑
				–∞–¥–∞—á—ñ –∑—ñ —Å—Ç–∞–Ω–æ–º execute —Ç–∞ —Ñ–æ–
				Ω–æ–≤–æ—ó 
				;----------------------------------------------
Microsoft (R) Macro Assembler Version 5.00                  5/11/17 10:39:37
                                                             Page     1-17


				------------------------------ 
 024D				userint33 proc far 
				;----------------------------------------------
				------------------------------ 
				 
				 
 = 0003				    btn_right equ 11b       ; –∫–æ–¥ –Ω–∞—Ç–∏—Å
				–Ω—É—Ç–æ—ó –ø—Ä–∞–≤–æ—ó –∫–Ω–æ–ø–∫–∏ 
 024D  66| 60			    pushad 
 024F  9C			    pushf 
				 
 0250  2E: FF 1E 022A R		    call cs:dword ptr int33ptr 
				 
 0255  B8 0003			    mov ax, 3               ; –æ—Ç—Ä–∏–º–∞—Ç–∏ 
				–ø–æ—Ç–æ—á–Ω—É –ø–æ–∑–∏—Ü—ñ—é –∫—É—Ä—Å–æ—Ä–∞ 
 0258  CD 33			    int 33h                 ; —Ç–∞ —Å—Ç–∞—Ç—É—Å
				 –∫–Ω–æ–ø–æ–∫ 
				 
 025A  B8 ---- R		    mov ax, _data 
 025D  8E D8			    mov ds, ax 
				 
 025F  83 3E 009F R 00		    cmp rbtn_pressed, 0 
 0264  0F 85 0325 R		    jne ui3330 
				 
 0268  80 E3 03			    and bl, btn_right 
 026B  0F 84 0325 R		    je ui3330 
				 
 026F  C1 E9 03			    shr cx, 3               ; –ø–µ—Ä–µ—Ç–≤–æ—Ä–
				µ–Ω–Ω—è –ø—ñ–∫—Å–µ–ª—ñ–≤ –≤ –∫–æ–æ—Ä–¥–∏–Ω–∞—Ç—
				É —Å–∏–º–æ–≤–ª–∞ 
 0272  C1 EA 03			    shr dx, 3               ; (–æ–¥–∏–Ω —Å–∏–º–
				≤–æ–ª –º–∞—î —Ä–æ–∑–º—ñ—Ä 8—Ö8 –≤ —Ç–µ–∫—Å—Ç–æ–
				≤–æ–º—É —Ä–µ–∂–∏–º—ñ) 
					 
					 
					 
					;;;;;;;;;;;;;;;;;;;;;;;;; 
					;–≤—ã—á–∏—Å–ª–µ–Ω–∏–µ —Å–º–µ—â–µ–Ω—è –∫
				—É—Ä—Å–æ—Ä–∞ –æ—Ç –Ω–∞—á–∞–ª–∞ —ç–∫—Ä–∞–Ω–∞ 
 0275  B0 00				mov al, 0; byte ptr row ; –æ–±—á–∏—Å–ª–
				µ–Ω–Ω—è Nrow ?80?2 + Ncolumn ? 2 
 0277  B4 00				mov ah,0 
 0279  BB 00A0				MOV BX, 160 
 027C  BD 0001				MOV BP, 1 
 027F					start_loop2: 
 027F  3B EB					CMP BP, BX 
 0281  0F 8F 028C R				jg end_loop2 
 0285  03 C2					add ax, DX 
 0287  83 C5 01					add BP, 1 
 028A  EB F3					jmp start_loop2 
 028C					end_loop2: 
 028C  03 C1				add ax,CX 
 028E  03 C1				add ax,CX ; –∑–∞–≤–µ—Ä—à–µ–Ω–Ω—è –æ–±—á
				–∏—Å–ª–µ–Ω–Ω—è 
Microsoft (R) Macro Assembler Version 5.00                  5/11/17 10:39:37
                                                             Page     1-18


 0290  A3 00A1 R			mov pointerOffset, ax 
					 
					 
					 
					 
 0293  8B 1E 00A1 R			mov bx, pointerOffset 
 0297  66| B9 00000000			mov ecx, 0 
 029D					while_beg: 
 029D  67| 8B 044D 0000005D			mov ax, screen_addr[ecx*2] 
	R			
 02A5  3B D8					cmp bx, ax 
 02A7  0F 8C 02AF R				jl while_end 
 02AB  66| 41						inc ecx 
 02AD  7D EE					jge while_beg 
					 
 02AF					while_end: 
					 
 02AF  66| 83 E9 01			sub ecx, 1 
 02B3  89 0E 00A3 R			mov taskToSht, cx 
					 
 02B7  67| 83 3C4D 0000005D		cmp screen_addr[ecx*2], 0 
	R 00			
 02C0  0F 84 0325 R			je ui3330 
					 
					 
 02C4  FF 36 00A1 R			push pointerOffset 
 02C8  68 0B68			    push 2920 
 02CB  E8 03A2 R		    call show 
					 
					 
 02CE  67| FF 344D 0000005D		push screen_addr[ecx*2] 
	R			
 02D6  68 0B82			    push 2946 
 02D9  E8 03A2 R		    call show	 
				 
 02DC  C7 06 009F R 00FF	    mov rbtn_pressed, 0ffh 
				 
				    ;push cx 
				    ;push 2920 
				    ;call show 
				 
 02E2  B9 000A			    mov cx, max_prg 
 02E5  66| 33 DB		    xor ebx, ebx 
				 
 02E8  06			    push es 
 02E9  B8 B800			    mov ax, 0b800h 
 02EC  8E C0			    mov es, ax 
				 
 02EE				ui3310: 
 02EE  83 3E 002B R 0A		    cmp nprg, fon 
 02F3  0F 84 0305 R		    je ui3325               ; –∑–∞–¥–∞—á–∞ —Ñ–æ
				–Ω–æ–≤–∞ ? 
				 
 02F7  8B 36 002B R		    mov si, nprg 
Microsoft (R) Macro Assembler Version 5.00                  5/11/17 10:39:37
                                                             Page     1-19


 02FB  3B DE			    cmp bx, si 
					 
 02FD  39 1E 00A3 R			cmp taskToSht, bx 
 0301  0F 85 0321 R			jne ui3320 
									; –∑–∞–
				¥–∞—á—É —Ç—Ä–µ–±–∞ –∑–Ω—è—Ç–∏ 
				 
 0305				ui3325:  
					 
 0305  C6 87 002D R 10		    mov init[bx], absent    ; –∑–Ω—è—Ç—Ç—è –∑–∞
				–¥–∞—á—ñ –∑ –≤–∏–∫–æ–Ω–∞–Ω–Ω—è 
				 
 030A  51			    push cx                     ; –∑–∞–ø–æ–≤–Ω–
				µ–Ω–Ω—è –Ω—É–ª—è–º–∏ –æ–±–ª–∞—Å—Ç—ñ –≤—ñ–¥–µ–æ–
				ø–∞–º'—è—Ç—ñ 
 030B  FC			    cld                         ; —è–∫—É –≤–∏–∫
				–æ—Ä–∏—Å—Ç–æ–≤—É—î –∑–∞–¥–∞—á–∞. 
 030C  B4 0A			    mov ah, 1010b               ; 1010b –∞—Ç—Ä–
				∏–±—É—Ç —Å–∏–º–≤–æ–ª—É, –∞—Ç—Ä–∏–±—É—Ç —Ñ–æ–Ω–∞
				 - 0(—á–æ—Ä–Ω–∏–π) 
 030E  B0 30			    mov al, '0' 
 0310  B9 0016			    mov cx, 22                  ; 22 —Ä–æ–∑—Ä—è
				–¥–∞ —É –ª—ñ—á–∏–ª—å–Ω–∏–∫–∞ 
 0313  67| 8B 3C5D 0000005D	    mov di, screen_addr[ebx*2]  ; –∫–æ–æ—Ä–¥–∏–
				Ω–∞—Ç–∞ –ª—ñ—á–∏–ª—å–Ω–∏–∫–∞ 
	R			
 031B  83 C7 06			    add di, 6 
 031E  F3/ AB			    rep stosw 
 0320  59			    pop cx 
				 
 0321				ui3320: 
 0321  43			    inc bx 
 0322  E2 CA			    loop ui3310 
				 
 0324  07			    pop es 
 0325				ui3330: 
 0325  66| 61			    popad 
 0327  CF			    iret 
 0328				userint33 endp 
				 
				 
				; Vcount - –ø—Ä–æ—Ü–µ–¥—É—Ä–∞ –¥–ª—è –º–æ–¥–µ–ª
				—é–≤–∞–Ω–Ω—è –Ω–µ–∑–∞–ª–µ–∂–Ω–∏—Ö –∑–∞–¥–∞—á  
				; –≤—Ö—ñ–¥–Ω—ñ –ø–∞—Ä–∞–º–µ—Ç—Ä–∏: 
				;   1-–π - —ñ–º'—è –∑–∞–¥–∞—á—ñ (–¥–≤–∞ —Å–∏–º–
				≤–æ–ª–∞) [bp+8] 
				;   2-–π - –∑–º—ñ—â–µ–Ω–Ω—è –≤ –≤—ñ–¥–µ–æ—Å—Ç–æ
				—Ä—ñ–Ω—Ü—ñ "–≤—ñ–∫–Ω–∞" –∑–∞–¥–∞—á—ñ [bp+6] 
				;   3-–π - –∫—ñ–ª—å–∫—ñ—Å—Ç—å –¥–≤—ñ–π–∫–æ–≤–∏—
				Ö —Ä–æ–∑—Ä—è–¥—ñ–≤ –ª—ñ—á–∏–ª—å–Ω–∏–∫–∞ [bp+4] 
				; –í–∏–∫–æ–Ω—É–≤–∞–Ω—ñ –¥—ñ—ó: 
				;    –ø—Ä–∏ –∑–∞–ø—É—Å–∫—É: 
				;  - –¥–æ–∑–≤–æ–ª—è—î –ø–µ—Ä–µ—Ä–∏–≤–∞–Ω–Ω—è 
				;  - —Å—Ç–≤–æ—Ä—é—î –≤ —Å—Ç–µ–∫—É 10-–±–∞–π—Ç–Ω
Microsoft (R) Macro Assembler Version 5.00                  5/11/17 10:39:37
                                                             Page     1-20


				—É –æ–±–ª–∞—Å—Ç—å –¥–ª—è –ª–æ–∫–∞–ª—å–Ω–∏—Ö –¥–
				∞–Ω–∏—Ö 
				;  - —Ä–æ–∑–º—ñ—â—É—î –≤ —Ü—é –æ–±–ª–∞—Å—Ç—å –ø
				–æ –∞–¥—Ä–µ—Å—ñ [bp-2] —Å—Ç–∞—Ç–æ–∫ –≤—ñ–¥ –¥—ñ
				–ª–µ–Ω–Ω—è 
				;               3-–≥–æ –ø–∞—Ä–∞–º–µ—Ç—Ä–∞ –Ω–∞ 
				32 (—Ñ–∞–∫—Ç–∏—á–Ω–∞ —Ä–æ–∑—Ä—è–¥–Ω—ñ—Å—Ç—å –ª—
				ñ—á–∏–ª—å–Ω–∏–∫–∞ - 
				;               –ø–µ—Ä–µ—Å—Ç—Ä–∞—Ö–æ–≤–∫–∞ –≤—ñ
				–¥ –ø–æ–º–∏–ª–æ–∫ –≤ –∑–∞–≤–¥–∞–Ω–Ω—ñ —Ä–æ–∑—Ä—
				è–¥–Ω–æ—Å—Ç—ñ) 
				;  - –∑–∞–ø–∏—Å—É—î –≤ —Ü—é –æ–±–ª–∞—Å—Ç—å –ø–æ
				 –∞–¥—Ä–µ—Å—É [bp-6] –º–∞—Å–∫—É –∑ —á–∏—Å–ª–æ–º
				 
				;               –æ–¥–∏–Ω–∏—Ü—å –≤ –º–æ–ª–æ–¥—à–
				∏—Ö —Ä–æ–∑—Ä—è–¥—ñ–≤ —Ä—ñ–≤–Ω–∏–º —Ñ–∞–∫—Ç–∏—á–
				Ω—ñ–π  
				;               —Ä–æ–∑—Ä—è–¥–Ω–æ—Å—Ç—ñ –ª—ñ—á–∏
				–ª—å–Ω–∏–∫–∞ 
				;  - –∑–∞–ø–∏—Å—É—î –≤ –Ω—É–ª—å –≤ 4-—Ö –±–∞–π—
				Ç –Ω–∏–π –ª—ñ—á–∏–ª—å–Ω–∏–∫ –ø–æ –∞–¥—Ä–µ—Å—É [
				bp-10] 
				 
				;   –≤ –ø–æ–¥–∞–ª—å—à–æ–º—É –≤ —Ü–∏–∫–ª—ñ: 
				;           - –≤–∏–≤–æ–¥–∏—Ç—å –ø–æ–∫–∞–∑–Ω–∏–∫
				–∏ –ª—ñ—á–∏–ª—å–Ω–∏–∫–∞ –Ω–∞ –µ–∫—Ä–∞–Ω 
				;           - –∑–±—ñ–ª—å—à—É—î –∑–Ω–∞—á–µ–Ω–Ω—è
				 –ª—ñ—á–∏–ª—å–Ω–∏–∫–∞ –Ω–∞ 1 
				;  –∑–∞–≤–µ—Ä—à–µ–Ω–Ω—è –∑–∞–¥–∞—á—ñ –ø—ñ—Å–ª—è
				 –ø–µ—Ä–µ—Ö–æ–¥—É –ª—ñ—á–∏–ª—å–Ω–∏–∫–∞  
				;  –∑ —Å—Ç–∞–Ω—É "–≤—Å—ñ –æ–¥–∏–Ω–∏—Ü—ñ" –≤ —Å—
				Ç–∞–Ω –≤—Å—ñ 0 
 0328				Vcount proc near 
 0328  55			    push bp 
 0329  8B EC			    mov bp, sp 
 032B  83 EC 0A			    sub sp, 10                  ; —Ñ–æ—Ä–º—É–≤–
				∞–Ω–Ω—è –≤ —Å—Ç–µ–∫—É –æ–±–ª–∞—Å—Ç—ñ –¥–ª—è 
				                                ; –∑–±–µ—Ä–µ–∂–
				µ–Ω–Ω—è –¥–∞–Ω–∏—Ö 
 032E  FB			    sti 
				 
 032F  06			    push es 
 0330  B8 B800			    mov ax, 0b800h 
 0333  8E C0			    mov es, ax 
				 
 0335  8B 46 04			    mov ax,[bp+4]               ; ax = –∫—ñ–ª—å
				–∫—ñ—Å—Ç—å —Ä–æ–∑—Ä—è–¥—ñ–≤ –ª—ñ—á–∏–ª—å–Ω–∏–∫–
				∞ 
 0338  25 001F			    and ax, 31                  ; ax=ax mod 32 
				(–¥–ª—è –ø–µ—Ä–µ—Å—Ç—Ä–∞—Ö–æ–≤–∫–∏) 
 033B  89 46 FE			    mov [bp-2], ax              ; –ø–æ [bp-2] –
				∫—ñ–ª—å–∫—ñ—Å—Ç—å —Ä–æ–∑—Ä. –ª—ñ—á–∏–ª—å–Ω–∏–∫–
				∞<32 
 033E  8B C8			    mov cx, ax 
Microsoft (R) Macro Assembler Version 5.00                  5/11/17 10:39:37
                                                             Page     1-21


 0340  66| B8 00000001		    mov eax, 001b 
 0346  66| D3 E0		    shl eax, cl 
 0349  66| 48			    dec eax                     ; eax - –º–∞—Å–
				∫–∞ —Å —á–∏—Å–ª–æ–º 1 —Ä—ñ–≤–Ω–∏–º 
				                                ; –∫—ñ–ª—å–∫–æ—
				Å—Ç—ñ —Ä–æ–∑—Ä—è–¥—ñ–≤ –ª—ñ—á–∏–ª—å–Ω–∏–∫–∞ 
 034B  66| 89 46 FA		    mov [bp-6], eax 
				 
 034F  66| C7 46 F6 00000000	    mov dword ptr [bp-10], 0    ; —Å–∫–∏–¥–∞–Ω–
				Ω—è –ª—ñ—á–∏–ª—å–Ω–∏–∫–∞ 
				 
 0357  8B 7E 06			    mov di, [bp+6]              ; –≤–∏–≤—ñ–¥ —ñ
				–º–µ–Ω—ñ –∑–∞–¥–∞—á—ñ 
 035A  8B 56 08			    mov dx, [bp+8] 
 035D  B4 0B			    mov ah, 1011b 
 035F  8A C6			    mov al, dh 
 0361  FC			    cld 
 0362  AB			    stosw 
 0363  8A C2			    mov al, dl 
 0365  AB			    stosw 
				 
 0366  FD			    std                         ; –ø—ñ–¥–≥–æ—Ç–
				æ–≤–∫–∞ –¥–æ –≤–∏–≤–æ–¥—É –ª—ñ—á–∏–ª—å–Ω–∏–∫–∞ 
 0367  03 F9			    add di, cx                  ; –ø–æ—á–∏–Ω–∞—
				é—á–∏ —Å –º–æ–ª–æ–¥—à–∏—Ö —Ä–æ–∑—Ä—è–¥—ñ–≤ 
 0369  03 F9			    add di, cx 
 036B  8B DF			    mov bx, di 
 036D  66| 33 D2		    xor edx, edx 
				 
 0370				l20:                            ; –≤–∏–≤—ñ–¥ –ø
				–æ–∫–∞–∑–Ω–∏–∫—ñ–≤ –ª—ñ—á–∏–ª—å–Ω–∏–∫–∞  –≤ –¥–
				≤–æ—ó—á–Ω–æ–º—É —Ñ–æ—Ä–º–∞—Ç—ñ 
 0370  8B FB			    mov di, bx 
 0372  8B 4E FE			    mov cx, [bp-2] 
 0375  B4 0A			    mov ah, 1010b               ; 1010b –∞—Ç—Ä–
				∏–±—É—Ç —Å–∏–º–≤–æ–ª—É, –∞—Ç—Ä–∏–±—É—Ç —Ñ–æ–Ω–∞
				 - 0(—á–æ—Ä–Ω–∏–π) 
 0377				l40: 
 0377  B0 30			    mov al, '0' 
 0379  66| D1 EA		    shr edx, 1 
 037C  0F 83 0382 R		    jnc l60 
 0380  B0 31			    mov al, '1' 
 0382				l60: 
 0382  AB			    stosw 
 0383  E2 F2			    loop l40 
				 
 0385  66| FF 46 F6		    inc dword ptr [bp-10]       ; +1 –≤ –ª—ñ—á–
				∏–ª—å–Ω–∏–∫ 
 0389  66| 8B 56 F6		    mov edx, dword ptr [bp-10] 
 038D  66| 23 56 FA		    and edx, [bp-6]             ; –ø–µ—Ä–µ–≤—ñ—
				Ä–∫–∞ –Ω–∞ 0 
 0391  75 DD			    jnz l20 
				 
 0393  07			    pop es 
Microsoft (R) Macro Assembler Version 5.00                  5/11/17 10:39:37
                                                             Page     1-22


 0394  83 C4 0A			    add sp, 10 
 0397  8B 46 08			    mov ax, [bp+8] 
 039A  25 000F			    and ax, 0fh 
 039D  FA			    cli 
 039E  5D			    pop bp 
 039F  C2 0006			    ret 6 
 03A2				Vcount endp 
				 
				;==============================================
				=============== 
 03A2				show proc near 
 03A2  55			    push bp 
 03A3  8B EC			    mov bp, sp 
 03A5  60			    pusha 
 03A6  06			    push es 
 03A7  B8 B800			    mov ax, 0b800h 
 03AA  8E C0			    mov es, ax 
				 
 03AC  FD			    std 
 03AD				ls20: 
 03AD  8B 7E 04			    mov di, [bp+4] 
 03B0  8B 5E 06			    mov bx, [bp+6] 
 03B3  B9 0004			    mov cx, 4 
 03B6  B4 0A			    mov ah, 0ah 
 03B8				ls40: 
 03B8  8A C3			    mov al, bl 
 03BA  24 0F			    and al, 00001111b 
 03BC  3C 0A			    cmp al, 10 
 03BE  0F 8C 03C4 R		    jl ls100 
 03C2  04 07			    add al, 7 
 03C4				ls100: 
 03C4  04 30			    add al, 30h 
 03C6  AB			    stosw 
 03C7  C1 EB 04			    shr bx, 4 
 03CA  E2 EC			    loop ls40 
				 
 03CC  07			    pop es 
 03CD  61			    popa 
 03CE  5D			    pop bp 
 03CF  C2 0004			    ret 4 
 03D2				show endp 
				 
				 
				;----------------------------------------------
				-------------- 
				;----------------------------------------------
				-------------- 
 03D2				begin: 
 03D2  B8 ---- R		    mov ax, _data 
 03D5  8E D8			    mov ds, ax 
				 
 03D7  B8 0003			    mov ax, 3                   ; –∑–∞–¥–∞—Ç–∏ 
				—Ç–µ–∫—Å—Ç–æ–≤–∏–π —Ä–µ–∂–∏–º 80 –Ω–∞ 25 
 03DA  CD 10			    int 10h 
Microsoft (R) Macro Assembler Version 5.00                  5/11/17 10:39:37
                                                             Page     1-23


				 
 03DC  B4 10			    mov ah, 10h                 ; –≤—ñ–¥–∫–ª—é—
				á–∏—Ç–∏ —Ä–µ–∂–∏–º –º–∏–≥–æ—Ç—ñ–Ω–Ω—è 
 03DE  B0 03			    mov al, 3 
 03E0  B3 00			    mov bl, 0 
 03E2  CD 10			    int 10h 
				 
 03E4  B9 000A			    mov cx, max_prg 
 03E7  66| 33 F6		    xor esi, esi 
 03EA  BB 0004			    mov bx, 4 
 03ED				b10: 
 03ED  67| 89 1C75 0000005D	    mov screen_addr[esi*2], bx  ; –∑–∞–ø–æ–≤–Ω–
				µ–Ω–Ω—è —Ç–∞–±–ª–∏—Ü—ñ 
	R			
				                                ; –∞–¥—Ä–µ—Å –≤
				–∏–≤–æ–¥—É –¥–ª—è –∑–∞–¥–∞—á 
 03F5  C6 84 002D R 00		    mov init[si], ready         ; –ø–µ—Ä—à–æ–ø–
				æ—á–∞—Ç–∫–æ–≤–µ –∑–∞–ø–æ–≤–Ω–µ–Ω–Ω—è 
				                                ; —Ç–∞–±–ª–∏—Ü—
				ñ —Å—Ç–∞–Ω—É –∑–∞–¥–∞—á 
 03FA  83 C3 50			    add bx, 80 
 03FD  46			    inc si 
 03FE  E2 ED			    loop b10 
				;SETINT 
 0400  FA			    cli                         ; –∑–∞–±–æ—Ä–æ–
				Ω–∞ –ø–µ—Ä–µ—Ä–∏–≤–∞–Ω—å 
				     
 0401  B4 34			    mov ah, 34h 
 0403  CD 21			    int 21h                     ; es:bx - –∞–¥—
				Ä–µ—Å–∞ –æ–∑–Ω–∞–∫–∏ –∑–∞–π–Ω—è—Ç–æ—Å—Ç—ñ MS-DO
				S 
 0405  89 1E 0000 R		    mov word ptr @ms_dos_busy, bx 
 0409  8C 06 0002 R		    mov word ptr @ms_dos_busy+2, es 
				 
 040D  E8 0000 R		    call setint8                ; "–ø–µ—Ä–µ—Ö–æ
				–ø–ª–µ–Ω–Ω—è" int8 
 0410  E8 0159 R		    call setint9                ; "–ø–µ—Ä–µ—Ö–æ
				–ø–ª–µ–Ω–Ω—è" int9 
 0413  E8 01F4 R		    call setint33               ; "–ø–µ—Ä–µ—Ö–æ
				–ø–ª–µ–Ω–Ω—è" int33 
				 
 0416  0F B2 26 0007 R		    lss sp, sssp                ; —Å—Ç–µ–∫ —Ñ–æ
				–Ω–æ–≤–æ—ó –∑–∞–¥–∞—á—ñ 
 041B  C7 06 002B R 000A	    mov nprg, fon 
 0421  68 464E			    push 'FN' 
 0424  68 0708			    push 1800 
 0427  6A 1E			    push 30 
 0429  E8 0328 R		    call Vcount                 ; –∑–∞–ø—É—Å–∫ 
				—Ñ–æ–Ω–æ–≤–æ—ó –∑–∞–¥–∞—á—ñ 
				                                ; –≤ –ø—Ä–æ—Ü–µ
				–¥—É—Ä—ñ Vcount —É—Å—Ç–∞–Ω–æ–≤–ª—é—î—Ç—å—Å—è –¥
				–æ–∑–≤—ñ–ª 
				                                ; –Ω–∞ –ø–µ—Ä–µ
				—Ä–∏–≤–∞–Ω–Ω—è —ñ –ø—Ä–∏ —á–µ—Ä–≥–æ–≤–∏—Ö –ø–µ—
Microsoft (R) Macro Assembler Version 5.00                  5/11/17 10:39:37
                                                             Page     1-24


				Ä–µ—Ä–∏–≤–∞–Ω–Ω—è—Ö 
				                                ; –≤—ñ–¥ —Ç–∞–π
				–º–µ—Ä–∞ –º–µ–Ω–µ–¥–∂–µ—Ä –∫–≤–∞–Ω—Ç—ñ–≤ (useri
				nt8)  
				                                ; –±—É–¥–µ –∑–∞
				–ø—É—Å–∫–∞—Ç—å —ñ–Ω—à—ñ –∑–∞–¥–∞—á—ñ 
				                                ; 
				                                ; —É–ø—Ä–∞–≤–ª—
				ñ–Ω–Ω—è –≤ —Ü—é —Ç–æ—á–∫—É –±—É–¥–µ –ø–µ—Ä–µ–¥–
				∞–Ω–æ –ø–æ –∫–æ–º–∞–Ω–¥—ñ RET –ø–æ –∑–
				                                ; –∑–∞–¥–∞—á—ñ,
				 –∞ —Ü–µ –º–æ–∂–ª–∏–≤–æ –ª–∏—à–µ –ø—ñ—Å–ª—è –∑–
				∞–≤–µ—Ä—à–µ–Ω–Ω—è —ñ–Ω—à–∏—Ö –∑–∞–¥–∞—
				 
 042C  E8 003C R		    call retint8                ; –≤—ñ–¥–Ω–æ–≤–
				ª–µ–Ω–Ω—è —Å–∏—Å—Ç–µ–º–Ω–∏—Ö –≤–µ–∫—Ç–æ—Ä—ñ–≤  
 042F  E8 0189 R		    call retint9 
 0432  E8 022E R		    call retint33 
 0435  FB			    sti 
 0436  B8 4C00			    mov ax, 4c00h 
 0439  CD 21			    int 21h 
 043B				_TEXT ENDS 
				end begin 
Microsoft (R) Macro Assembler Version 5.00                  5/11/17 10:39:37
                                                             Symbols-1




                N a m e         	Size	Length	 Align	Combine Class

_DATA  . . . . . . . . . . . . .  	16 Bit	00A5	WORD	PUBLIC	'DATA'
_ST  . . . . . . . . . . . . . .  	16 Bit	FAC8	WORD	STACK	'STACK'
_TEXT  . . . . . . . . . . . . .  	16 Bit	043B	BYTE	PUBLIC	'CODE'

Symbols:            

                N a m e         	Type	 Value	 Attr

ABSENT . . . . . . . . . . . . .  	NUMBER	0010	

B10  . . . . . . . . . . . . . .  	L NEAR	03ED	_TEXT
BEGIN  . . . . . . . . . . . . .  	L NEAR	03D2	_TEXT
BTN_RIGHT  . . . . . . . . . . .  	NUMBER	0003	

CLK  . . . . . . . . . . . . . .  	L WORD	009D	_DATA
CLOCK  . . . . . . . . . . . . .  	L BYTE	003D	_DATA	Length = 0010
CLOCKT . . . . . . . . . . . . .  	L BYTE	004D	_DATA	Length = 0010
CLOSE  . . . . . . . . . . . . .  	NUMBER	0004	

DISP005  . . . . . . . . . . . .  	L NEAR	009A	_TEXT
DISP010  . . . . . . . . . . . .  	L NEAR	00AA	_TEXT
DISP015  . . . . . . . . . . . .  	L NEAR	00BA	_TEXT
DISP018  . . . . . . . . . . . .  	L NEAR	00CD	_TEXT
DISP020  . . . . . . . . . . . .  	L NEAR	00F4	_TEXT
DISP100  . . . . . . . . . . . .  	L NEAR	0111	_TEXT

END_LOOP2  . . . . . . . . . . .  	L NEAR	028C	_TEXT
ESC_KEY  . . . . . . . . . . . .  	NUMBER	0001	
EXECUTE  . . . . . . . . . . . .  	NUMBER	0001	

FON  . . . . . . . . . . . . . .  	ALIAS	 MAX_PRG		
FONSP  . . . . . . . . . . . . .  	L WORD	0007	_DATA

HESITATION . . . . . . . . . . .  	NUMBER	0002	

INIT . . . . . . . . . . . . . .  	L BYTE	002D	_DATA	Length = 0010
INT33PTR . . . . . . . . . . . .  	L WORD	022A	_TEXT	Length = 0002
INT33SET . . . . . . . . . . . .  	L BYTE	0006	_DATA
INT8PTR  . . . . . . . . . . . .  	L WORD	0038	_TEXT	Length = 0002
INT8SET  . . . . . . . . . . . .  	L BYTE	0004	_DATA
INT9PTR  . . . . . . . . . . . .  	L WORD	0185	_TEXT	Length = 0002
INT9SET  . . . . . . . . . . . .  	L BYTE	0005	_DATA

L20  . . . . . . . . . . . . . .  	L NEAR	0370	_TEXT
L40  . . . . . . . . . . . . . .  	L NEAR	0377	_TEXT
L60  . . . . . . . . . . . . . .  	L NEAR	0382	_TEXT
LS100  . . . . . . . . . . . . .  	L NEAR	03C4	_TEXT
LS20 . . . . . . . . . . . . . .  	L NEAR	03AD	_TEXT
LS40 . . . . . . . . . . . . . .  	L NEAR	03B8	_TEXT

Microsoft (R) Macro Assembler Version 5.00                  5/11/17 10:39:37
                                                             Symbols-2


MAX_PRG  . . . . . . . . . . . .  	NUMBER	000A	

NAMES  . . . . . . . . . . . . .  	L WORD	007D	_DATA
NPRG . . . . . . . . . . . . . .  	L WORD	002B	_DATA

POINTEROFFSET  . . . . . . . . .  	L WORD	00A1	_DATA

RBTN_PRESSED . . . . . . . . . .  	L WORD	009F	_DATA
READY  . . . . . . . . . . . . .  	NUMBER	0000	
RETINT33 . . . . . . . . . . . .  	N PROC	022E	_TEXT	Length = 001F
RETINT8  . . . . . . . . . . . .  	N PROC	003C	_TEXT	Length = 0023
RETINT9  . . . . . . . . . . . .  	N PROC	0189	_TEXT	Length = 001A

SCREEN_ADDR  . . . . . . . . . .  	L WORD	005D	_DATA	Length = 0010
SETINT33 . . . . . . . . . . . .  	N PROC	01F4	_TEXT	Length = 003A
SETINT8  . . . . . . . . . . . .  	N PROC	0000	_TEXT	Length = 003C
SETINT9  . . . . . . . . . . . .  	N PROC	0159	_TEXT	Length = 0030
SHOW . . . . . . . . . . . . . .  	N PROC	03A2	_TEXT	Length = 0030
SSSP . . . . . . . . . . . . . .  	L DWORD	0007	_DATA
START_LOOP2  . . . . . . . . . .  	L NEAR	027F	_TEXT
STOP . . . . . . . . . . . . . .  	NUMBER	0008	
STP  . . . . . . . . . . . . . .  	L WORD	000B	_DATA

TASKTOSHT  . . . . . . . . . . .  	L WORD	00A3	_DATA
TIME_SLICE . . . . . . . . . . .  	NUMBER	FFFF	
TOP  . . . . . . . . . . . . . .  	L WORD	FA00	_ST

UI3310 . . . . . . . . . . . . .  	L NEAR	02EE	_TEXT
UI3320 . . . . . . . . . . . . .  	L NEAR	0321	_TEXT
UI3325 . . . . . . . . . . . . .  	L NEAR	0305	_TEXT
UI3330 . . . . . . . . . . . . .  	L NEAR	0325	_TEXT
UI9010 . . . . . . . . . . . . .  	L NEAR	01B8	_TEXT
UI9020 . . . . . . . . . . . . .  	L NEAR	01D4	_TEXT
UI9040 . . . . . . . . . . . . .  	L NEAR	01F1	_TEXT
USERINT33  . . . . . . . . . . .  	F PROC	024D	_TEXT	Length = 00DB
USERINT8 . . . . . . . . . . . .  	F PROC	005F	_TEXT	Length = 00FA
USERINT9 . . . . . . . . . . . .  	F PROC	01A3	_TEXT	Length = 0051

VCOUNT . . . . . . . . . . . . .  	N PROC	0328	_TEXT	Length = 007A

WHILE_BEG  . . . . . . . . . . .  	L NEAR	029D	_TEXT
WHILE_END  . . . . . . . . . . .  	L NEAR	02AF	_TEXT

ZERO_33H . . . . . . . . . . . .  	L NEAR	0229	_TEXT
ZERO_8 . . . . . . . . . . . . .  	L NEAR	0037	_TEXT
ZERO_9 . . . . . . . . . . . . .  	L NEAR	0184	_TEXT

@FILENAME  . . . . . . . . . . .  	TEXT  lab6		
@MS_DOS_BUSY . . . . . . . . . .  	L DWORD	0000	_DATA

Microsoft (R) Macro Assembler Version 5.00                  5/11/17 10:39:37
                                                             Symbols-3



    810 Source  Lines
    810 Total   Lines
     79 Symbols

  50954 + 418182 Bytes symbol space free

      0 Warning Errors
      0 Severe  Errors
